; Function Attrs: nounwind uwtable
define ptr @l_Lean_mkAuxDeclName___rarg___lambda__3(ptr noundef %0, ptr noundef %1, ptr noundef %2, ptr noundef %3, ptr noundef %4, ptr noundef %5) #1 {
  %7 = getelementptr inbounds nuw i8, ptr %0, i64 8
  %8 = load ptr, ptr %7, align 8, !tbaa !9
  %9 = ptrtoint ptr %8 to i64
  %10 = and i64 %9, 1
  %.not = icmp eq i64 %10, 0
  br i1 %.not, label %11, label %lean_inc.exit18

11:                                               ; preds = %6
  %.val.i = load i32, ptr %8, align 4, !tbaa !4
  %12 = icmp sgt i32 %.val.i, 0
  br i1 %12, label %13, label %15, !prof !11

13:                                               ; preds = %11
  %14 = add nuw i32 %.val.i, 1
  store i32 %14, ptr %8, align 4, !tbaa !4
  br label %lean_inc.exit18

15:                                               ; preds = %11
  %.not.i19 = icmp eq i32 %.val.i, 0
  br i1 %.not.i19, label %lean_inc.exit18, label %16

16:                                               ; preds = %15
  tail call void @lean_inc_ref_cold(ptr noundef nonnull %8) #7
  br label %lean_inc.exit18

lean_inc.exit18:                                  ; preds = %16, %15, %13, %6
  %17 = ptrtoint ptr %0 to i64
  %18 = and i64 %17, 1
  %.not23 = icmp eq i64 %18, 0
  br i1 %.not23, label %19, label %lean_dec.exit

19:                                               ; preds = %lean_inc.exit18
  %20 = load i32, ptr %0, align 4, !tbaa !4
  %21 = icmp sgt i32 %20, 1
  br i1 %21, label %22, label %24, !prof !11

22:                                               ; preds = %19
  %23 = add nsw i32 %20, -1
  store i32 %23, ptr %0, align 4, !tbaa !4
  br label %lean_dec.exit

24:                                               ; preds = %19
  %.not.i = icmp eq i32 %20, 0
  br i1 %.not.i, label %lean_dec.exit, label %25

25:                                               ; preds = %24
  tail call void @lean_dec_ref_cold(ptr noundef nonnull %0) #7
  br label %lean_dec.exit

lean_dec.exit:                                    ; preds = %25, %24, %22, %lean_inc.exit18
  %26 = ptrtoint ptr %4 to i64
  %27 = and i64 %26, 1
  %.not24 = icmp eq i64 %27, 0
  br i1 %.not24, label %28, label %lean_inc.exit

28:                                               ; preds = %lean_dec.exit
  %.val.i20 = load i32, ptr %4, align 4, !tbaa !4
  %29 = icmp sgt i32 %.val.i20, 0
  br i1 %29, label %30, label %32, !prof !11

30:                                               ; preds = %28
  %31 = add nuw i32 %.val.i20, 1
  store i32 %31, ptr %4, align 4, !tbaa !4
  br label %lean_inc.exit

32:                                               ; preds = %28
  %.not.i21 = icmp eq i32 %.val.i20, 0
  br i1 %.not.i21, label %lean_inc.exit, label %33

33:                                               ; preds = %32
  tail call void @lean_inc_ref_cold(ptr noundef nonnull %4) #7
  br label %lean_inc.exit

lean_inc.exit:                                    ; preds = %33, %32, %30, %lean_dec.exit
  tail call void @lean_inc_heartbeat() #7
  %34 = tail call noalias ptr @mi_malloc_small(i64 noundef 64) #7
  %35 = icmp eq ptr %34, null
  br i1 %35, label %36, label %lean_alloc_closure.exit

36:                                               ; preds = %lean_inc.exit
  tail call void @lean_internal_panic_out_of_memory() #8
  unreachable

lean_alloc_closure.exit:                          ; preds = %lean_inc.exit
  %37 = getelementptr inbounds nuw i8, ptr %34, i64 4
  store i32 1, ptr %34, align 4, !tbaa !4
  store i32 -184549312, ptr %37, align 4
  %38 = getelementptr inbounds nuw i8, ptr %34, i64 8
  store ptr @l_Lean_mkAuxDeclName___rarg___lambda__2, ptr %38, align 8, !tbaa !9
  %39 = getelementptr inbounds nuw i8, ptr %34, i64 16
  store i16 6, ptr %39, align 8, !tbaa !15
  %40 = getelementptr inbounds nuw i8, ptr %34, i64 18
  store i16 5, ptr %40, align 2, !tbaa !15
  %41 = getelementptr inbounds nuw i8, ptr %34, i64 24
  store ptr %5, ptr %41, align 8, !tbaa !9
  %42 = getelementptr inbounds nuw i8, ptr %34, i64 32
  store ptr %1, ptr %42, align 8, !tbaa !9
  %43 = getelementptr inbounds nuw i8, ptr %34, i64 40
  store ptr %2, ptr %43, align 8, !tbaa !9
  %44 = getelementptr inbounds nuw i8, ptr %34, i64 48
  store ptr %3, ptr %44, align 8, !tbaa !9
  %45 = getelementptr inbounds nuw i8, ptr %34, i64 56
  store ptr %4, ptr %45, align 8, !tbaa !9
  %46 = tail call ptr @lean_apply_4(ptr noundef %4, ptr noundef nonnull inttoptr (i64 1 to ptr), ptr noundef nonnull inttoptr (i64 1 to ptr), ptr noundef %8, ptr noundef nonnull %34) #7
  ret ptr %46
}